target datalayout = "e-m:e-p270:32:32-p271:32:32-p272:64:64-i64:64-i128:128-f80:128-n8:16:32:64-S128"
target triple = "x86_64-pc-linux-gnu"

%struct.Agobj_s = type { %struct.Agtag_s, ptr }
%struct.Agtag_s = type { i32, i64 }
%struct.Agraphinfo_t = type { %struct.Agrec_s, ptr, ptr, %struct.boxf, [4 x %struct.pointf_s], i8, i8, i8, i8, i32, double, double, i16, ptr, ptr, ptr, ptr, i32, ptr, ptr, ptr, ptr, i16, i16, i32, ptr, ptr, ptr, ptr, ptr, i32, ptr, ptr, %struct.nlist_t, ptr, ptr, i32, i32, i8, i8, i32, i32, i32, ptr, ptr, ptr, ptr, i8, i8, i8, i8, i8 }
%struct.Agrec_s = type { ptr, ptr }
%struct.boxf = type { %struct.pointf_s, %struct.pointf_s }
%struct.pointf_s = type { double, double }
%struct.nlist_t = type { ptr, i64 }
%struct.gdata = type { ptr, i32, %struct.boxf, i32, i32, ptr }

; Function Attrs: nounwind uwtable
define internal void @cleanup_subgs(ptr noundef %0) #0 {
  %2 = alloca ptr, align 8
  %3 = alloca ptr, align 8
  %4 = alloca i32, align 4
  store ptr %0, ptr %2, align 8, !tbaa !3
  call void @llvm.lifetime.start.p0(i64 8, ptr %3) #8
  call void @llvm.lifetime.start.p0(i64 4, ptr %4) #8
  store i32 1, ptr %4, align 4, !tbaa !8
  br label %5

5:                                                ; preds = %49, %1
  %6 = load i32, ptr %4, align 4, !tbaa !8
  %7 = load ptr, ptr %2, align 8, !tbaa !3
  %8 = getelementptr inbounds nuw %struct.Agobj_s, ptr %7, i32 0, i32 1
  %9 = load ptr, ptr %8, align 8, !tbaa !10
  %10 = getelementptr inbounds nuw %struct.Agraphinfo_t, ptr %9, i32 0, i32 24
  %11 = load i32, ptr %10, align 4, !tbaa !77
  %12 = icmp sle i32 %6, %11
  br i1 %12, label %13, label %52

13:                                               ; preds = %5
  %14 = load ptr, ptr %2, align 8, !tbaa !3
  %15 = getelementptr inbounds nuw %struct.Agobj_s, ptr %14, i32 0, i32 1
  %16 = load ptr, ptr %15, align 8, !tbaa !10
  %17 = getelementptr inbounds nuw %struct.Agraphinfo_t, ptr %16, i32 0, i32 25
  %18 = load ptr, ptr %17, align 8, !tbaa !78
  %19 = load i32, ptr %4, align 4, !tbaa !8
  %20 = sext i32 %19 to i64
  %21 = getelementptr inbounds ptr, ptr %18, i64 %20
  %22 = load ptr, ptr %21, align 8, !tbaa !3
  store ptr %22, ptr %3, align 8, !tbaa !3
  %23 = load ptr, ptr %3, align 8, !tbaa !3
  %24 = getelementptr inbounds nuw %struct.Agobj_s, ptr %23, i32 0, i32 1
  %25 = load ptr, ptr %24, align 8, !tbaa !10
  %26 = getelementptr inbounds nuw %struct.Agraphinfo_t, ptr %25, i32 0, i32 2
  %27 = load ptr, ptr %26, align 8, !tbaa !79
  call void @free_label(ptr noundef %27)
  %28 = load ptr, ptr %3, align 8, !tbaa !3
  %29 = getelementptr inbounds nuw %struct.Agobj_s, ptr %28, i32 0, i32 1
  %30 = load ptr, ptr %29, align 8, !tbaa !10
  %31 = getelementptr inbounds nuw %struct.Agraphinfo_t, ptr %30, i32 0, i32 13
  %32 = load ptr, ptr %31, align 8, !tbaa !76
  %33 = icmp ne ptr %32, null
  br i1 %33, label %34, label %47

34:                                               ; preds = %13
  %35 = load ptr, ptr %3, align 8, !tbaa !3
  %36 = getelementptr inbounds nuw %struct.Agobj_s, ptr %35, i32 0, i32 1
  %37 = load ptr, ptr %36, align 8, !tbaa !10
  %38 = getelementptr inbounds nuw %struct.Agraphinfo_t, ptr %37, i32 0, i32 13
  %39 = load ptr, ptr %38, align 8, !tbaa !76
  %40 = getelementptr inbounds nuw %struct.gdata, ptr %39, i32 0, i32 0
  %41 = load ptr, ptr %40, align 8, !tbaa !80
  call void @free(ptr noundef %41) #8
  %42 = load ptr, ptr %3, align 8, !tbaa !3
  %43 = getelementptr inbounds nuw %struct.Agobj_s, ptr %42, i32 0, i32 1
  %44 = load ptr, ptr %43, align 8, !tbaa !10
  %45 = getelementptr inbounds nuw %struct.Agraphinfo_t, ptr %44, i32 0, i32 13
  %46 = load ptr, ptr %45, align 8, !tbaa !76
  call void @free(ptr noundef %46) #8
  br label %47

47:                                               ; preds = %34, %13
  %48 = load ptr, ptr %3, align 8, !tbaa !3
  call void @cleanup_subgs(ptr noundef %48)
  br label %49

49:                                               ; preds = %47
  %50 = load i32, ptr %4, align 4, !tbaa !8
  %51 = add nsw i32 %50, 1
  store i32 %51, ptr %4, align 4, !tbaa !8
  br label %5, !llvm.loop !83

52:                                               ; preds = %5
  %53 = load ptr, ptr %2, align 8, !tbaa !3
  %54 = getelementptr inbounds nuw %struct.Agobj_s, ptr %53, i32 0, i32 1
  %55 = load ptr, ptr %54, align 8, !tbaa !10
  %56 = getelementptr inbounds nuw %struct.Agraphinfo_t, ptr %55, i32 0, i32 25
  %57 = load ptr, ptr %56, align 8, !tbaa !78
  call void @free(ptr noundef %57) #8
  call void @llvm.lifetime.end.p0(i64 4, ptr %4) #8
  call void @llvm.lifetime.end.p0(i64 8, ptr %3) #8
  ret void
}