; Function Attrs: nounwind uwtable
define internal fastcc void @cleanup_subgs(ptr noundef readonly captures(none) %0) unnamed_addr #0 {
  %2 = getelementptr inbounds nuw i8, ptr %0, i64 16
  %3 = load ptr, ptr %2, align 8, !tbaa !8
  %4 = getelementptr inbounds nuw i8, ptr %3, i64 236
  %5 = load i32, ptr %4, align 4, !tbaa !69
  %.not12 = icmp slt i32 %5, 1
  br i1 %.not12, label %._crit_edge, label %.lr.ph

.lr.ph:                                           ; preds = %1, %23
  %indvars.iv = phi i64 [ %indvars.iv.next, %23 ], [ 1, %1 ]
  %6 = phi ptr [ %24, %23 ], [ %3, %1 ]
  %7 = getelementptr inbounds nuw i8, ptr %6, i64 240
  %8 = load ptr, ptr %7, align 8, !tbaa !70
  %9 = getelementptr inbounds nuw ptr, ptr %8, i64 %indvars.iv
  %10 = load ptr, ptr %9, align 8, !tbaa !71
  %11 = getelementptr inbounds nuw i8, ptr %10, i64 16
  %12 = load ptr, ptr %11, align 8, !tbaa !8
  %13 = getelementptr inbounds nuw i8, ptr %12, i64 24
  %14 = load ptr, ptr %13, align 8, !tbaa !72
  tail call void @free_label(ptr noundef %14) #8
  %15 = load ptr, ptr %11, align 8, !tbaa !8
  %16 = getelementptr inbounds nuw i8, ptr %15, i64 160
  %17 = load ptr, ptr %16, align 8, !tbaa !68
  %.not11 = icmp eq ptr %17, null
  br i1 %.not11, label %23, label %18

18:                                               ; preds = %.lr.ph
  %19 = load ptr, ptr %17, align 8, !tbaa !73
  tail call void @free(ptr noundef %19) #8
  %20 = load ptr, ptr %11, align 8, !tbaa !8
  %21 = getelementptr inbounds nuw i8, ptr %20, i64 160
  %22 = load ptr, ptr %21, align 8, !tbaa !68
  tail call void @free(ptr noundef %22) #8
  br label %23

23:                                               ; preds = %18, %.lr.ph
  tail call fastcc void @cleanup_subgs(ptr noundef nonnull %10)
  %indvars.iv.next = add nuw nsw i64 %indvars.iv, 1
  %24 = load ptr, ptr %2, align 8, !tbaa !8
  %25 = getelementptr inbounds nuw i8, ptr %24, i64 236
  %26 = load i32, ptr %25, align 4, !tbaa !69
  %27 = sext i32 %26 to i64
  %.not.not = icmp slt i64 %indvars.iv, %27
  br i1 %.not.not, label %.lr.ph, label %._crit_edge, !llvm.loop !76

._crit_edge:                                      ; preds = %23, %1
  %.lcssa = phi ptr [ %3, %1 ], [ %24, %23 ]
  %28 = getelementptr inbounds nuw i8, ptr %.lcssa, i64 240
  %29 = load ptr, ptr %28, align 8, !tbaa !70
  tail call void @free(ptr noundef %29) #8
  ret void
}